
fib.x:     file format elf32-littleriscv


Disassembly of section .text:

00000000 <_start>:
   0:	100f0137          	lui	sp,0x100f0
   4:	008000ef          	jal	c <main>
   8:	0000006f          	j	8 <_start+0x8>

0000000c <main>:
   c:	fe010113          	addi	sp,sp,-32 # 100effe0 <fibonacci+0x100effa0>
  10:	00112e23          	sw	ra,28(sp)
  14:	00812c23          	sw	s0,24(sp)
  18:	02010413          	addi	s0,sp,32
  1c:	00a00513          	li	a0,10
  20:	020000ef          	jal	40 <fibonacci>
  24:	fea42623          	sw	a0,-20(s0)
  28:	00000793          	li	a5,0
  2c:	00078513          	mv	a0,a5
  30:	01c12083          	lw	ra,28(sp)
  34:	01812403          	lw	s0,24(sp)
  38:	02010113          	addi	sp,sp,32
  3c:	00008067          	ret

00000040 <fibonacci>:
  40:	fd010113          	addi	sp,sp,-48
  44:	02812623          	sw	s0,44(sp)
  48:	03010413          	addi	s0,sp,48
  4c:	fca42e23          	sw	a0,-36(s0)
  50:	fdc42703          	lw	a4,-36(s0)
  54:	00100793          	li	a5,1
  58:	00e7c663          	blt	a5,a4,64 <fibonacci+0x24>
  5c:	fdc42783          	lw	a5,-36(s0)
  60:	0580006f          	j	b8 <fibonacci+0x78>
  64:	fe042623          	sw	zero,-20(s0)
  68:	00100793          	li	a5,1
  6c:	fef42423          	sw	a5,-24(s0)
  70:	00200793          	li	a5,2
  74:	fef42223          	sw	a5,-28(s0)
  78:	0300006f          	j	a8 <fibonacci+0x68>
  7c:	fec42783          	lw	a5,-20(s0)
  80:	fef42023          	sw	a5,-32(s0)
  84:	fe842783          	lw	a5,-24(s0)
  88:	fef42623          	sw	a5,-20(s0)
  8c:	fe842703          	lw	a4,-24(s0)
  90:	fe042783          	lw	a5,-32(s0)
  94:	00f707b3          	add	a5,a4,a5
  98:	fef42423          	sw	a5,-24(s0)
  9c:	fe442783          	lw	a5,-28(s0)
  a0:	00178793          	addi	a5,a5,1
  a4:	fef42223          	sw	a5,-28(s0)
  a8:	fe442703          	lw	a4,-28(s0)
  ac:	fdc42783          	lw	a5,-36(s0)
  b0:	fce7d6e3          	bge	a5,a4,7c <fibonacci+0x3c>
  b4:	fe842783          	lw	a5,-24(s0)
  b8:	00078513          	mv	a0,a5
  bc:	02c12403          	lw	s0,44(sp)
  c0:	03010113          	addi	sp,sp,48
  c4:	00008067          	ret

Disassembly of section .eh_frame:

000000c8 <.eh_frame>:
  c8:	0010                	.insn	2, 0x0010
  ca:	0000                	.insn	2, 0x
  cc:	0000                	.insn	2, 0x
  ce:	0000                	.insn	2, 0x
  d0:	00527a03          	.insn	4, 0x00527a03
  d4:	7c01                	.insn	2, 0x7c01
  d6:	0101                	.insn	2, 0x0101
  d8:	00020d1b          	.insn	4, 0x00020d1b
  dc:	0024                	.insn	2, 0x0024
  de:	0000                	.insn	2, 0x
  e0:	0018                	.insn	2, 0x0018
  e2:	0000                	.insn	2, 0x
  e4:	ff28                	.insn	2, 0xff28
  e6:	ffff                	.insn	2, 0xffff
  e8:	0034                	.insn	2, 0x0034
  ea:	0000                	.insn	2, 0x
  ec:	4400                	.insn	2, 0x4400
  ee:	200e                	.insn	2, 0x200e
  f0:	8148                	.insn	2, 0x8148
  f2:	8801                	.insn	2, 0x8801
  f4:	4402                	.insn	2, 0x4402
  f6:	080c                	.insn	2, 0x080c
  f8:	5800                	.insn	2, 0x5800
  fa:	44c1                	.insn	2, 0x44c1
  fc:	0cc8                	.insn	2, 0x0cc8
  fe:	2002                	.insn	2, 0x2002
 100:	0e44                	.insn	2, 0x0e44
 102:	0000                	.insn	2, 0x
 104:	0020                	.insn	2, 0x0020
 106:	0000                	.insn	2, 0x
 108:	0040                	.insn	2, 0x0040
 10a:	0000                	.insn	2, 0x
 10c:	ff34                	.insn	2, 0xff34
 10e:	ffff                	.insn	2, 0xffff
 110:	0088                	.insn	2, 0x0088
 112:	0000                	.insn	2, 0x
 114:	4400                	.insn	2, 0x4400
 116:	300e                	.insn	2, 0x300e
 118:	8844                	.insn	2, 0x8844
 11a:	4401                	.insn	2, 0x4401
 11c:	080c                	.insn	2, 0x080c
 11e:	0200                	.insn	2, 0x0200
 120:	c874                	.insn	2, 0xc874
 122:	020c                	.insn	2, 0x020c
 124:	4430                	.insn	2, 0x4430
 126:	000e                	.insn	2, 0x000e

Disassembly of section .riscv.attributes:

00000000 <.riscv.attributes>:
   0:	4d41                	.insn	2, 0x4d41
   2:	0000                	.insn	2, 0x
   4:	7200                	.insn	2, 0x7200
   6:	7369                	.insn	2, 0x7369
   8:	01007663          	bgeu	zero,a6,14 <main+0x8>
   c:	00000043          	fmadd.s	ft0,ft0,ft0,ft0,rne
  10:	1004                	.insn	2, 0x1004
  12:	7205                	.insn	2, 0x7205
  14:	3376                	.insn	2, 0x3376
  16:	6932                	.insn	2, 0x6932
  18:	7032                	.insn	2, 0x7032
  1a:	5f31                	.insn	2, 0x5f31
  1c:	326d                	.insn	2, 0x326d
  1e:	3070                	.insn	2, 0x3070
  20:	615f 7032 5f31      	.insn	6, 0x5f317032615f
  26:	3266                	.insn	2, 0x3266
  28:	3270                	.insn	2, 0x3270
  2a:	645f 7032 5f32      	.insn	6, 0x5f327032645f
  30:	697a                	.insn	2, 0x697a
  32:	32727363          	bgeu	tp,t2,358 <fibonacci+0x318>
  36:	3070                	.insn	2, 0x3070
  38:	7a5f 6669 6e65      	.insn	6, 0x6e6566697a5f
  3e:	32696563          	bltu	s2,t1,368 <fibonacci+0x328>
  42:	3070                	.insn	2, 0x3070
  44:	7a5f 6d6d 6c75      	.insn	6, 0x6c756d6d7a5f
  4a:	7031                	.insn	2, 0x7031
  4c:	0030                	.insn	2, 0x0030

Disassembly of section .comment:

00000000 <.comment>:
   0:	3a434347          	fmsub.d	ft6,ft6,ft4,ft7,rmm
   4:	2820                	.insn	2, 0x2820
   6:	2029                	.insn	2, 0x2029
   8:	3331                	.insn	2, 0x3331
   a:	322e                	.insn	2, 0x322e
   c:	302e                	.insn	2, 0x302e
	...
