
fib.x:     file format elf32-littleriscv


Disassembly of section .text:

00000000 <_start>:
   0:	100f0137          	lui	sp,0x100f0
   4:	008000ef          	jal	c <main>
   8:	0000006f          	j	8 <_start+0x8>

0000000c <main>:
   c:	fe010113          	addi	sp,sp,-32 # 100effe0 <fibonacci+0x100effa0>
  10:	00112e23          	sw	ra,28(sp)
  14:	00812c23          	sw	s0,24(sp)
  18:	02010413          	addi	s0,sp,32
  1c:	00a00513          	li	a0,10
  20:	020000ef          	jal	40 <fibonacci>
  24:	fea42623          	sw	a0,-20(s0)
  28:	00000793          	li	a5,0
  2c:	00078513          	mv	a0,a5
  30:	01c12083          	lw	ra,28(sp)
  34:	01812403          	lw	s0,24(sp)
  38:	02010113          	addi	sp,sp,32
  3c:	00008067          	ret

00000040 <fibonacci>:
  40:	fd010113          	addi	sp,sp,-48
  44:	02812623          	sw	s0,44(sp)
  48:	03010413          	addi	s0,sp,48
  4c:	fca42e23          	sw	a0,-36(s0)
  50:	fdc42703          	lw	a4,-36(s0)
  54:	00100793          	li	a5,1
  58:	00e7c663          	blt	a5,a4,64 <fibonacci+0x24>
  5c:	fdc42783          	lw	a5,-36(s0)
  60:	0580006f          	j	b8 <fibonacci+0x78>
  64:	fe042623          	sw	zero,-20(s0)
  68:	00100793          	li	a5,1
  6c:	fef42423          	sw	a5,-24(s0)
  70:	00200793          	li	a5,2
  74:	fef42223          	sw	a5,-28(s0)
  78:	0300006f          	j	a8 <fibonacci+0x68>
  7c:	fec42783          	lw	a5,-20(s0)
  80:	fef42023          	sw	a5,-32(s0)
  84:	fe842783          	lw	a5,-24(s0)
  88:	fef42623          	sw	a5,-20(s0)
  8c:	fe842703          	lw	a4,-24(s0)
  90:	fe042783          	lw	a5,-32(s0)
  94:	00f707b3          	add	a5,a4,a5
  98:	fef42423          	sw	a5,-24(s0)
  9c:	fe442783          	lw	a5,-28(s0)
  a0:	00178793          	addi	a5,a5,1
  a4:	fef42223          	sw	a5,-28(s0)
  a8:	fe442703          	lw	a4,-28(s0)
  ac:	fdc42783          	lw	a5,-36(s0)
  b0:	fce7d6e3          	bge	a5,a4,7c <fibonacci+0x3c>
  b4:	fe842783          	lw	a5,-24(s0)
  b8:	00078513          	mv	a0,a5
  bc:	02c12403          	lw	s0,44(sp)
  c0:	03010113          	addi	sp,sp,48
  c4:	00008067          	ret
