
prime.x:     file format elf32-littleriscv


Disassembly of section .text:

00000000 <_start>:
   0:	40000113          	li	sp,1024
   4:	138000ef          	jal	13c <main>
   8:	0000006f          	j	8 <_start+0x8>

0000000c <sieve_of_eratosthenes>:
   c:	e3010113          	addi	sp,sp,-464
  10:	1c812623          	sw	s0,460(sp)
  14:	1d010413          	addi	s0,sp,464
  18:	e2a42e23          	sw	a0,-452(s0)
  1c:	fe042623          	sw	zero,-20(s0)
  20:	fe042423          	sw	zero,-24(s0)
  24:	0280006f          	j	4c <sieve_of_eratosthenes+0x40>
  28:	fe842783          	lw	a5,-24(s0)
  2c:	00279793          	slli	a5,a5,0x2
  30:	ff078793          	addi	a5,a5,-16
  34:	008787b3          	add	a5,a5,s0
  38:	00100713          	li	a4,1
  3c:	e4e7ac23          	sw	a4,-424(a5)
  40:	fe842783          	lw	a5,-24(s0)
  44:	00178793          	addi	a5,a5,1
  48:	fef42423          	sw	a5,-24(s0)
  4c:	fe842703          	lw	a4,-24(s0)
  50:	e3c42783          	lw	a5,-452(s0)
  54:	fce7dae3          	bge	a5,a4,28 <sieve_of_eratosthenes+0x1c>
  58:	00200793          	li	a5,2
  5c:	fef42223          	sw	a5,-28(s0)
  60:	06c0006f          	j	cc <sieve_of_eratosthenes+0xc0>
  64:	fe442783          	lw	a5,-28(s0)
  68:	00279793          	slli	a5,a5,0x2
  6c:	ff078793          	addi	a5,a5,-16
  70:	008787b3          	add	a5,a5,s0
  74:	e587a703          	lw	a4,-424(a5)
  78:	00100793          	li	a5,1
  7c:	04f71263          	bne	a4,a5,c0 <sieve_of_eratosthenes+0xb4>
  80:	fe442783          	lw	a5,-28(s0)
  84:	02f787b3          	mul	a5,a5,a5
  88:	fef42023          	sw	a5,-32(s0)
  8c:	0280006f          	j	b4 <sieve_of_eratosthenes+0xa8>
  90:	fe042783          	lw	a5,-32(s0)
  94:	00279793          	slli	a5,a5,0x2
  98:	ff078793          	addi	a5,a5,-16
  9c:	008787b3          	add	a5,a5,s0
  a0:	e407ac23          	sw	zero,-424(a5)
  a4:	fe042703          	lw	a4,-32(s0)
  a8:	fe442783          	lw	a5,-28(s0)
  ac:	00f707b3          	add	a5,a4,a5
  b0:	fef42023          	sw	a5,-32(s0)
  b4:	fe042703          	lw	a4,-32(s0)
  b8:	e3c42783          	lw	a5,-452(s0)
  bc:	fce7dae3          	bge	a5,a4,90 <sieve_of_eratosthenes+0x84>
  c0:	fe442783          	lw	a5,-28(s0)
  c4:	00178793          	addi	a5,a5,1
  c8:	fef42223          	sw	a5,-28(s0)
  cc:	fe442783          	lw	a5,-28(s0)
  d0:	02f787b3          	mul	a5,a5,a5
  d4:	e3c42703          	lw	a4,-452(s0)
  d8:	f8f756e3          	bge	a4,a5,64 <sieve_of_eratosthenes+0x58>
  dc:	00200793          	li	a5,2
  e0:	fcf42e23          	sw	a5,-36(s0)
  e4:	0380006f          	j	11c <sieve_of_eratosthenes+0x110>
  e8:	fdc42783          	lw	a5,-36(s0)
  ec:	00279793          	slli	a5,a5,0x2
  f0:	ff078793          	addi	a5,a5,-16
  f4:	008787b3          	add	a5,a5,s0
  f8:	e587a703          	lw	a4,-424(a5)
  fc:	00100793          	li	a5,1
 100:	00f71863          	bne	a4,a5,110 <sieve_of_eratosthenes+0x104>
 104:	fec42783          	lw	a5,-20(s0)
 108:	00178793          	addi	a5,a5,1
 10c:	fef42623          	sw	a5,-20(s0)
 110:	fdc42783          	lw	a5,-36(s0)
 114:	00178793          	addi	a5,a5,1
 118:	fcf42e23          	sw	a5,-36(s0)
 11c:	fdc42703          	lw	a4,-36(s0)
 120:	e3c42783          	lw	a5,-452(s0)
 124:	fce7d2e3          	bge	a5,a4,e8 <sieve_of_eratosthenes+0xdc>
 128:	fec42783          	lw	a5,-20(s0)
 12c:	00078513          	mv	a0,a5
 130:	1cc12403          	lw	s0,460(sp)
 134:	1d010113          	addi	sp,sp,464
 138:	00008067          	ret

0000013c <main>:
 13c:	fe010113          	addi	sp,sp,-32
 140:	00112e23          	sw	ra,28(sp)
 144:	00812c23          	sw	s0,24(sp)
 148:	02010413          	addi	s0,sp,32
 14c:	03200793          	li	a5,50
 150:	fef42623          	sw	a5,-20(s0)
 154:	fec42503          	lw	a0,-20(s0)
 158:	eb5ff0ef          	jal	c <sieve_of_eratosthenes>
 15c:	fea42423          	sw	a0,-24(s0)
 160:	00000793          	li	a5,0
 164:	00078513          	mv	a0,a5
 168:	01c12083          	lw	ra,28(sp)
 16c:	01812403          	lw	s0,24(sp)
 170:	02010113          	addi	sp,sp,32
 174:	00008067          	ret
